target datalayout = "e-m:e-p270:32:32-p271:32:32-p272:64:64-i64:64-i128:128-f80:128-n8:16:32:64-S128"
target triple = "x86_64-pc-linux-gnu"

%struct.Proto = type { i8, i8, i8, i8, i8, i8, i8, i8, ptr, ptr, ptr, ptr, ptr, i64, ptr, ptr, ptr, ptr, ptr, ptr, ptr, ptr, ptr, ptr, i32, i32, i32, i32, i32, i32, i32, i32, i32, i32 }
%struct.lua_State = type { i8, i8, i8, i8, i8, i8, i8, ptr, ptr, ptr, ptr, ptr, ptr, ptr, ptr, i32, i32, i16, i16, i32, ptr, ptr, ptr, ptr, ptr }
%struct.global_State = type { %struct.stringtable, ptr, ptr, i8, i8, ptr, ptr, ptr, i64, i64, i32, i32, i32, [40 x ptr], [40 x ptr], ptr, ptr, ptr, [256 x i64], ptr, %struct.UpVal, [11 x ptr], [11 x ptr], [21 x ptr], %struct.lua_TValue, %struct.lua_TValue, i32, ptr, i64, [4 x i64], %struct.lua_Callbacks, %struct.lua_ExecutionCallbacks, [128 x ptr], [128 x ptr], [128 x ptr], %struct.GCStats }
%struct.stringtable = type { ptr, i32, i32 }
%struct.UpVal = type { i8, i8, i8, i8, ptr, %union.anon }
%union.anon = type { %struct.anon }
%struct.anon = type { ptr, ptr, ptr }
%struct.lua_TValue = type { %union.Value, [1 x i32], i32 }
%union.Value = type { ptr }
%struct.lua_Callbacks = type { ptr, ptr, ptr, ptr, ptr, ptr, ptr, ptr, ptr, ptr }
%struct.lua_ExecutionCallbacks = type { ptr, ptr, ptr, ptr, ptr, ptr, ptr }
%struct.GCStats = type { [32 x i32], i32, i32, i64, i64, i64, double, double, double }

; Function Attrs: mustprogress nounwind uwtable
define internal noundef ptr @_ZN4Luau7CodeGenL17getCodeGenContextEP9lua_State(ptr noundef %0) #1 {
  %2 = alloca ptr, align 8
  store ptr %0, ptr %2, align 8, !tbaa !214
  %3 = load ptr, ptr %2, align 8, !tbaa !214
  %4 = getelementptr inbounds nuw %struct.lua_State, ptr %3, i32 0, i32 9
  %5 = load ptr, ptr %4, align 8, !tbaa !219
  %6 = getelementptr inbounds nuw %struct.global_State, ptr %5, i32 0, i32 31
  %7 = getelementptr inbounds nuw %struct.lua_ExecutionCallbacks, ptr %6, i32 0, i32 0
  %8 = load ptr, ptr %7, align 8, !tbaa !294
  ret ptr %8
}

; Function Attrs: mustprogress nounwind uwtable
define internal void @_ZN4Luau7CodeGenL17onDestroyFunctionEP9lua_StateP5Proto(ptr noundef %0, ptr noundef %1) #1 {
  %3 = alloca ptr, align 8
  %4 = alloca ptr, align 8
  store ptr %0, ptr %3, align 8, !tbaa !214
  store ptr %1, ptr %4, align 8, !tbaa !167
  %5 = load ptr, ptr %3, align 8, !tbaa !214
  %6 = call noundef ptr @_ZN4Luau7CodeGenL17getCodeGenContextEP9lua_State(ptr noundef %5) #17
  %7 = load ptr, ptr %4, align 8, !tbaa !167
  %8 = getelementptr inbounds nuw %struct.Proto, ptr %7, i32 0, i32 12
  %9 = load ptr, ptr %8, align 8, !tbaa !183
  %10 = load ptr, ptr %6, align 8, !tbaa !27
  %11 = getelementptr inbounds ptr, ptr %10, i64 3
  %12 = load ptr, ptr %11, align 8
  call void %12(ptr noundef nonnull align 8 dereferenceable(2784) %6, ptr noundef %9) #17
  %13 = load ptr, ptr %4, align 8, !tbaa !167
  %14 = getelementptr inbounds nuw %struct.Proto, ptr %13, i32 0, i32 12
  store ptr null, ptr %14, align 8, !tbaa !183
  %15 = load ptr, ptr %4, align 8, !tbaa !167
  %16 = getelementptr inbounds nuw %struct.Proto, ptr %15, i32 0, i32 13
  store i64 0, ptr %16, align 8, !tbaa !184
  %17 = load ptr, ptr %4, align 8, !tbaa !167
  %18 = getelementptr inbounds nuw %struct.Proto, ptr %17, i32 0, i32 9
  %19 = load ptr, ptr %18, align 8, !tbaa !298
  %20 = load ptr, ptr %4, align 8, !tbaa !167
  %21 = getelementptr inbounds nuw %struct.Proto, ptr %20, i32 0, i32 11
  store ptr %19, ptr %21, align 8, !tbaa !185
  ret void
}