; Function Attrs: mustprogress nounwind uwtable
define internal void @_ZN4Luau7CodeGenL17onDestroyFunctionEP9lua_StateP5Proto(ptr noundef readonly captures(none) %0, ptr noundef captures(none) initializes((32, 40), (48, 56)) %1) #7 {
  %3 = getelementptr i8, ptr %0, i64 24
  %.val = load ptr, ptr %3, align 8, !tbaa !121
  %4 = getelementptr i8, ptr %.val, i64 3368
  %.val.val = load ptr, ptr %4, align 8, !tbaa !148
  %5 = getelementptr inbounds nuw i8, ptr %1, i64 40
  %6 = load ptr, ptr %5, align 8, !tbaa !75
  %7 = load ptr, ptr %.val.val, align 8, !tbaa !8
  %8 = getelementptr inbounds nuw i8, ptr %7, i64 24
  %9 = load ptr, ptr %8, align 8
  tail call void %9(ptr noundef nonnull align 8 dereferenceable(2784) %.val.val, ptr noundef %6) #24
  %10 = getelementptr inbounds nuw i8, ptr %1, i64 16
  tail call void @llvm.memset.p0.i64(ptr noundef nonnull align 8 dereferenceable(16) %5, i8 0, i64 16, i1 false)
  %11 = load ptr, ptr %10, align 8, !tbaa !316
  %12 = getelementptr inbounds nuw i8, ptr %1, i64 32
  store ptr %11, ptr %12, align 8, !tbaa !78
  ret void
}